target datalayout = "e-m:e-p270:32:32-p271:32:32-p272:64:64-i64:64-i128:128-f80:128-n8:16:32:64-S128"
target triple = "x86_64-pc-linux-gnu"

%struct._YR_ARENA_PAGE = type { ptr, ptr, i64, i64, ptr, ptr, ptr, ptr }
%struct._YR_ARENA = type { i32, ptr, ptr }
%struct._YR_RELOC = type { i32, ptr }

; Function Attrs: nounwind uwtable
define void @yr_arena_destroy(ptr noundef %0) #0 {
  %2 = alloca ptr, align 8
  %3 = alloca ptr, align 8
  %4 = alloca ptr, align 8
  %5 = alloca ptr, align 8
  %6 = alloca ptr, align 8
  store ptr %0, ptr %2, align 8
  %7 = load ptr, ptr %2, align 8
  %8 = getelementptr inbounds %struct._YR_ARENA, ptr %7, i32 0, i32 1
  %9 = load ptr, ptr %8, align 8
  store ptr %9, ptr %5, align 8
  br label %10

10:                                               ; preds = %29, %1
  %11 = load ptr, ptr %5, align 8
  %12 = icmp ne ptr %11, null
  br i1 %12, label %13, label %35

13:                                               ; preds = %10
  %14 = load ptr, ptr %5, align 8
  %15 = getelementptr inbounds %struct._YR_ARENA_PAGE, ptr %14, i32 0, i32 6
  %16 = load ptr, ptr %15, align 8
  store ptr %16, ptr %6, align 8
  %17 = load ptr, ptr %5, align 8
  %18 = getelementptr inbounds %struct._YR_ARENA_PAGE, ptr %17, i32 0, i32 4
  %19 = load ptr, ptr %18, align 8
  store ptr %19, ptr %3, align 8
  br label %20

20:                                               ; preds = %23, %13
  %21 = load ptr, ptr %3, align 8
  %22 = icmp ne ptr %21, null
  br i1 %22, label %23, label %29

23:                                               ; preds = %20
  %24 = load ptr, ptr %3, align 8
  %25 = getelementptr inbounds %struct._YR_RELOC, ptr %24, i32 0, i32 1
  %26 = load ptr, ptr %25, align 8
  store ptr %26, ptr %4, align 8
  %27 = load ptr, ptr %3, align 8
  call void @free(ptr noundef %27) #8
  %28 = load ptr, ptr %4, align 8
  store ptr %28, ptr %3, align 8
  br label %20

29:                                               ; preds = %20
  %30 = load ptr, ptr %5, align 8
  %31 = getelementptr inbounds %struct._YR_ARENA_PAGE, ptr %30, i32 0, i32 1
  %32 = load ptr, ptr %31, align 8
  call void @free(ptr noundef %32) #8
  %33 = load ptr, ptr %5, align 8
  call void @free(ptr noundef %33) #8
  %34 = load ptr, ptr %6, align 8
  store ptr %34, ptr %5, align 8
  br label %10

35:                                               ; preds = %10
  %36 = load ptr, ptr %2, align 8
  call void @free(ptr noundef %36) #8
  ret void
}