; Function Attrs: nounwind uwtable
define void @yr_arena_destroy(ptr nocapture noundef %0) local_unnamed_addr #0 {
  %2 = getelementptr inbounds i8, ptr %0, i64 8
  %3 = load ptr, ptr %2, align 8
  %.not16 = icmp eq ptr %3, null
  br i1 %.not16, label %._crit_edge20, label %.lr.ph19

.lr.ph19:                                         ; preds = %1, %._crit_edge
  %.01217 = phi ptr [ %5, %._crit_edge ], [ %3, %1 ]
  %4 = getelementptr inbounds i8, ptr %.01217, i64 48
  %5 = load ptr, ptr %4, align 8
  %6 = getelementptr inbounds i8, ptr %.01217, i64 32
  %7 = load ptr, ptr %6, align 8
  %.not1314 = icmp eq ptr %7, null
  br i1 %.not1314, label %._crit_edge, label %.lr.ph

.lr.ph:                                           ; preds = %.lr.ph19, %.lr.ph
  %.015 = phi ptr [ %9, %.lr.ph ], [ %7, %.lr.ph19 ]
  %8 = getelementptr inbounds i8, ptr %.015, i64 8
  %9 = load ptr, ptr %8, align 8
  tail call void @free(ptr noundef nonnull %.015) #11
  %.not13 = icmp eq ptr %9, null
  br i1 %.not13, label %._crit_edge, label %.lr.ph

._crit_edge:                                      ; preds = %.lr.ph, %.lr.ph19
  %10 = getelementptr inbounds i8, ptr %.01217, i64 8
  %11 = load ptr, ptr %10, align 8
  tail call void @free(ptr noundef %11) #11
  tail call void @free(ptr noundef %.01217) #11
  %.not = icmp eq ptr %5, null
  br i1 %.not, label %._crit_edge20, label %.lr.ph19

._crit_edge20:                                    ; preds = %._crit_edge, %1
  tail call void @free(ptr noundef %0) #11
  ret void
}